; Function Attrs: nounwind uwtable
define internal ptr @mappingproxy_or(ptr noundef %0, ptr noundef %1) #0 {
  %3 = getelementptr i8, ptr %0, i64 8
  %.val8 = load ptr, ptr %3, align 8, !tbaa !19
  %.not.i = icmp eq ptr %.val8, @PyDictProxy_Type
  br i1 %.not.i, label %PyObject_TypeCheck.exit.thread, label %PyObject_TypeCheck.exit

PyObject_TypeCheck.exit:                          ; preds = %2
  %4 = tail call i32 @PyType_IsSubtype(ptr noundef %.val8, ptr noundef nonnull @PyDictProxy_Type) #9
  %.not13 = icmp eq i32 %4, 0
  br i1 %.not13, label %7, label %PyObject_TypeCheck.exit.thread

PyObject_TypeCheck.exit.thread:                   ; preds = %2, %PyObject_TypeCheck.exit
  %5 = getelementptr inbounds nuw i8, ptr %0, i64 16
  %6 = load ptr, ptr %5, align 8, !tbaa !148
  br label %7

7:                                                ; preds = %PyObject_TypeCheck.exit.thread, %PyObject_TypeCheck.exit
  %.06 = phi ptr [ %6, %PyObject_TypeCheck.exit.thread ], [ %0, %PyObject_TypeCheck.exit ]
  %8 = getelementptr i8, ptr %1, i64 8
  %.val = load ptr, ptr %8, align 8, !tbaa !19
  %.not.i9 = icmp eq ptr %.val, @PyDictProxy_Type
  br i1 %.not.i9, label %PyObject_TypeCheck.exit10.thread, label %PyObject_TypeCheck.exit10

PyObject_TypeCheck.exit10:                        ; preds = %7
  %9 = tail call i32 @PyType_IsSubtype(ptr noundef %.val, ptr noundef nonnull @PyDictProxy_Type) #9
  %.not = icmp eq i32 %9, 0
  br i1 %.not, label %12, label %PyObject_TypeCheck.exit10.thread

PyObject_TypeCheck.exit10.thread:                 ; preds = %7, %PyObject_TypeCheck.exit10
  %10 = getelementptr inbounds nuw i8, ptr %1, i64 16
  %11 = load ptr, ptr %10, align 8, !tbaa !148
  br label %12

12:                                               ; preds = %PyObject_TypeCheck.exit10.thread, %PyObject_TypeCheck.exit10
  %.0 = phi ptr [ %11, %PyObject_TypeCheck.exit10.thread ], [ %1, %PyObject_TypeCheck.exit10 ]
  %13 = tail call ptr @PyNumber_Or(ptr noundef %.06, ptr noundef %.0) #9
  ret ptr %13
}